target datalayout = "e-m:e-p270:32:32-p271:32:32-p272:64:64-i64:64-i128:128-f80:128-n8:16:32:64-S128"
target triple = "x86_64-pc-linux-gnu"

%struct._object = type { %union.anon, ptr }
%union.anon = type { i64 }
%struct.HeapCTypeObject = type { %struct._object, i32 }
%struct.HeapCTypeWithBufferObject = type { %struct.HeapCTypeObject, [4 x i8] }

; Function Attrs: nounwind uwtable
define internal i32 @heapctypewithbuffer_getbuffer(ptr noundef %0, ptr noundef %1, i32 noundef %2) #0 {
  %4 = alloca ptr, align 8
  %5 = alloca ptr, align 8
  %6 = alloca i32, align 4
  store ptr %0, ptr %4, align 8, !tbaa !20
  store ptr %1, ptr %5, align 8, !tbaa !20
  store i32 %2, ptr %6, align 4, !tbaa !10
  %7 = load ptr, ptr %4, align 8, !tbaa !20
  %8 = getelementptr inbounds nuw %struct.HeapCTypeWithBufferObject, ptr %7, i32 0, i32 1
  %9 = getelementptr [4 x i8], ptr %8, i64 0, i64 0
  store i8 49, ptr %9, align 8, !tbaa !12
  %10 = load ptr, ptr %4, align 8, !tbaa !20
  %11 = getelementptr inbounds nuw %struct.HeapCTypeWithBufferObject, ptr %10, i32 0, i32 1
  %12 = getelementptr [4 x i8], ptr %11, i64 0, i64 1
  store i8 50, ptr %12, align 1, !tbaa !12
  %13 = load ptr, ptr %4, align 8, !tbaa !20
  %14 = getelementptr inbounds nuw %struct.HeapCTypeWithBufferObject, ptr %13, i32 0, i32 1
  %15 = getelementptr [4 x i8], ptr %14, i64 0, i64 2
  store i8 51, ptr %15, align 2, !tbaa !12
  %16 = load ptr, ptr %4, align 8, !tbaa !20
  %17 = getelementptr inbounds nuw %struct.HeapCTypeWithBufferObject, ptr %16, i32 0, i32 1
  %18 = getelementptr [4 x i8], ptr %17, i64 0, i64 3
  store i8 52, ptr %18, align 1, !tbaa !12
  %19 = load ptr, ptr %5, align 8, !tbaa !20
  %20 = load ptr, ptr %4, align 8, !tbaa !20
  %21 = load ptr, ptr %4, align 8, !tbaa !20
  %22 = getelementptr inbounds nuw %struct.HeapCTypeWithBufferObject, ptr %21, i32 0, i32 1
  %23 = getelementptr inbounds [4 x i8], ptr %22, i64 0, i64 0
  %24 = load i32, ptr %6, align 4, !tbaa !10
  %25 = call i32 @PyBuffer_FillInfo(ptr noundef %19, ptr noundef %20, ptr noundef %23, i64 noundef 4, i32 noundef 1, i32 noundef %24)
  ret i32 %25
}