; Function Attrs: nounwind uwtable
define internal i32 @heapctypewithbuffer_getbuffer(ptr noundef initializes((24, 28)) %0, ptr noundef %1, i32 noundef %2) #0 {
  %4 = getelementptr inbounds nuw i8, ptr %0, i64 24
  store i8 49, ptr %4, align 8, !tbaa !8
  %5 = getelementptr i8, ptr %0, i64 25
  store i8 50, ptr %5, align 1, !tbaa !8
  %6 = getelementptr i8, ptr %0, i64 26
  store i8 51, ptr %6, align 2, !tbaa !8
  %7 = getelementptr i8, ptr %0, i64 27
  store i8 52, ptr %7, align 1, !tbaa !8
  %8 = tail call i32 @PyBuffer_FillInfo(ptr noundef %1, ptr noundef %0, ptr noundef nonnull %4, i64 noundef 4, i32 noundef 1, i32 noundef %2) #8
  ret i32 %8
}